target datalayout = "e-m:e-p270:32:32-p271:32:32-p272:64:64-i64:64-i128:128-f80:128-n8:16:32:64-S128"
target triple = "x86_64-unknown-linux-gnu"

%"class.hermes::Register" = type { i32 }
%"class.hermes::RegisterFile" = type { %"class.llvh::BitVector" }
%"class.llvh::BitVector" = type <{ %"class.llvh::MutableArrayRef", i32, [4 x i8] }>
%"class.llvh::MutableArrayRef" = type { %"class.llvh::ArrayRef" }
%"class.llvh::ArrayRef" = type { ptr, i64 }

; Function Attrs: mustprogress nounwind uwtable
define linkonce_odr hidden noundef ptr @_ZNK4llvh8ArrayRefImE4dataEv(ptr noundef nonnull align 8 dereferenceable(16) %this) #0 comdat align 2 {
entry:
  %this.addr = alloca ptr, align 8
  store ptr %this, ptr %this.addr, align 8
  %this1 = load ptr, ptr %this.addr, align 8
  %Data = getelementptr inbounds %"class.llvh::ArrayRef", ptr %this1, i32 0, i32 0
  %0 = load ptr, ptr %Data, align 8
  ret ptr %0
}

; Function Attrs: mustprogress nounwind uwtable
define linkonce_odr hidden noundef ptr @_ZNK4llvh15MutableArrayRefImE4dataEv(ptr noundef nonnull align 8 dereferenceable(16) %this) #0 comdat align 2 {
entry:
  %this.addr = alloca ptr, align 8
  store ptr %this, ptr %this.addr, align 8
  %this1 = load ptr, ptr %this.addr, align 8
  %call = call noundef ptr @_ZNK4llvh8ArrayRefImE4dataEv(ptr noundef nonnull align 8 dereferenceable(16) %this1)
  ret ptr %call
}

; Function Attrs: mustprogress nounwind uwtable
define linkonce_odr hidden noundef nonnull align 8 dereferenceable(8) ptr @_ZNK4llvh15MutableArrayRefImEixEm(ptr noundef nonnull align 8 dereferenceable(16) %this, i64 noundef %Index) #0 comdat align 2 {
entry:
  %this.addr = alloca ptr, align 8
  %Index.addr = alloca i64, align 8
  store ptr %this, ptr %this.addr, align 8
  store i64 %Index, ptr %Index.addr, align 8
  %this1 = load ptr, ptr %this.addr, align 8
  %call = call noundef ptr @_ZNK4llvh15MutableArrayRefImE4dataEv(ptr noundef nonnull align 8 dereferenceable(16) %this1)
  %0 = load i64, ptr %Index.addr, align 8
  %arrayidx = getelementptr inbounds i64, ptr %call, i64 %0
  ret ptr %arrayidx
}

; Function Attrs: mustprogress nounwind uwtable
define linkonce_odr hidden noundef zeroext i1 @_ZNK4llvh9BitVectorixEj(ptr noundef nonnull align 8 dereferenceable(20) %this, i32 noundef %Idx) #0 comdat align 2 {
entry:
  %this.addr = alloca ptr, align 8
  %Idx.addr = alloca i32, align 4
  %Mask = alloca i64, align 8
  store ptr %this, ptr %this.addr, align 8
  store i32 %Idx, ptr %Idx.addr, align 4
  %this1 = load ptr, ptr %this.addr, align 8
  %0 = load i32, ptr %Idx.addr, align 4
  %rem = urem i32 %0, 64
  %sh_prom = zext i32 %rem to i64
  %shl = shl i64 1, %sh_prom
  store i64 %shl, ptr %Mask, align 8
  %Bits = getelementptr inbounds %"class.llvh::BitVector", ptr %this1, i32 0, i32 0
  %1 = load i32, ptr %Idx.addr, align 4
  %div = udiv i32 %1, 64
  %conv = zext i32 %div to i64
  %call = call noundef nonnull align 8 dereferenceable(8) ptr @_ZNK4llvh15MutableArrayRefImEixEm(ptr noundef nonnull align 8 dereferenceable(16) %Bits, i64 noundef %conv)
  %2 = load i64, ptr %call, align 8
  %3 = load i64, ptr %Mask, align 8
  %and = and i64 %2, %3
  %cmp = icmp ne i64 %and, 0
  ret i1 %cmp
}

; Function Attrs: mustprogress nounwind uwtable
define linkonce_odr hidden noundef zeroext i1 @_ZNK4llvh9BitVector4testEj(ptr noundef nonnull align 8 dereferenceable(20) %this, i32 noundef %Idx) #0 comdat align 2 {
entry:
  %this.addr = alloca ptr, align 8
  %Idx.addr = alloca i32, align 4
  store ptr %this, ptr %this.addr, align 8
  store i32 %Idx, ptr %Idx.addr, align 4
  %this1 = load ptr, ptr %this.addr, align 8
  %0 = load i32, ptr %Idx.addr, align 4
  %call = call noundef zeroext i1 @_ZNK4llvh9BitVectorixEj(ptr noundef nonnull align 8 dereferenceable(20) %this1, i32 noundef %0)
  ret i1 %call
}

; Function Attrs: mustprogress nounwind uwtable
define linkonce_odr hidden noundef i32 @_ZNK6hermes8Register8getIndexEv(ptr noundef nonnull align 4 dereferenceable(4) %this) #0 comdat align 2 {
entry:
  %this.addr = alloca ptr, align 8
  store ptr %this, ptr %this.addr, align 8
  %this1 = load ptr, ptr %this.addr, align 8
  %value = getelementptr inbounds %"class.hermes::Register", ptr %this1, i32 0, i32 0
  %0 = load i32, ptr %value, align 4
  ret i32 %0
}

; Function Attrs: mustprogress nounwind uwtable
define hidden noundef zeroext i1 @_ZN6hermes12RegisterFile6isUsedENS_8RegisterE(ptr noundef nonnull align 8 dereferenceable(24) %this, i32 %r.coerce) #0 align 2 {
entry:
  %r = alloca %"class.hermes::Register", align 4
  %this.addr = alloca ptr, align 8
  %coerce.dive = getelementptr inbounds %"class.hermes::Register", ptr %r, i32 0, i32 0
  store i32 %r.coerce, ptr %coerce.dive, align 4
  store ptr %this, ptr %this.addr, align 8
  %this1 = load ptr, ptr %this.addr, align 8
  %registers = getelementptr inbounds %"class.hermes::RegisterFile", ptr %this1, i32 0, i32 0
  %call = call noundef i32 @_ZNK6hermes8Register8getIndexEv(ptr noundef nonnull align 4 dereferenceable(4) %r)
  %call2 = call noundef zeroext i1 @_ZNK4llvh9BitVector4testEj(ptr noundef nonnull align 8 dereferenceable(20) %registers, i32 noundef %call)
  %lnot = xor i1 %call2, true
  ret i1 %lnot
}

; Function Attrs: mustprogress nounwind uwtable
define hidden noundef zeroext i1 @_ZN6hermes12RegisterFile6isFreeENS_8RegisterE(ptr noundef nonnull align 8 dereferenceable(24) %this, i32 %r.coerce) #0 align 2 {
entry:
  %r = alloca %"class.hermes::Register", align 4
  %this.addr = alloca ptr, align 8
  %agg.tmp = alloca %"class.hermes::Register", align 4
  %coerce.dive = getelementptr inbounds %"class.hermes::Register", ptr %r, i32 0, i32 0
  store i32 %r.coerce, ptr %coerce.dive, align 4
  store ptr %this, ptr %this.addr, align 8
  %this1 = load ptr, ptr %this.addr, align 8
  call void @llvm.memcpy.p0.p0.i64(ptr align 4 %agg.tmp, ptr align 4 %r, i64 4, i1 false)
  %coerce.dive2 = getelementptr inbounds %"class.hermes::Register", ptr %agg.tmp, i32 0, i32 0
  %0 = load i32, ptr %coerce.dive2, align 4
  %call = call noundef zeroext i1 @_ZN6hermes12RegisterFile6isUsedENS_8RegisterE(ptr noundef nonnull align 8 dereferenceable(24) %this1, i32 %0)
  %lnot = xor i1 %call, true
  ret i1 %lnot
}